; Function Attrs: nounwind uwtable
define dso_local void @ExecAsyncForeignScanRequest(ptr noundef %0) local_unnamed_addr #0 {
  %2 = getelementptr inbounds nuw i8, ptr %0, i64 8
  %3 = load ptr, ptr %2, align 8
  %4 = getelementptr inbounds nuw i8, ptr %3, i64 248
  %5 = load ptr, ptr %4, align 8
  %6 = getelementptr inbounds nuw i8, ptr %5, i64 344
  %7 = load ptr, ptr %6, align 8
  tail call void %7(ptr noundef %0) #5
  ret void
}